target datalayout = "e-m:e-p270:32:32-p271:32:32-p272:64:64-i64:64-i128:128-f80:128-n8:16:32:64-S128"
target triple = "x86_64-pc-linux-gnu"

%class.SerializeClosure = type { ptr }
%class.ReadClosure = type { %class.SerializeClosure, ptr }

; Function Attrs: mustprogress nounwind uwtable
define linkonce_odr hidden noundef i64 @_ZN11ReadClosure7nextPtrEv(ptr noundef nonnull align 8 dereferenceable(16) %0) #1 comdat align 2 {
  %2 = alloca ptr, align 8
  store ptr %0, ptr %2, align 8
  %3 = load ptr, ptr %2, align 8
  %4 = getelementptr inbounds %class.ReadClosure, ptr %3, i32 0, i32 1
  %5 = load ptr, ptr %4, align 8
  %6 = load ptr, ptr %5, align 8
  %7 = getelementptr inbounds i64, ptr %6, i32 1
  store ptr %7, ptr %5, align 8
  %8 = load i64, ptr %6, align 8
  ret i64 %8
}

; Function Attrs: mustprogress nounwind uwtable
define hidden void @_ZN11ReadClosure6do_intEPi(ptr noundef nonnull align 8 dereferenceable(16) %0, ptr noundef %1) unnamed_addr #1 align 2 {
  %3 = alloca ptr, align 8
  %4 = alloca ptr, align 8
  %5 = alloca i64, align 8
  store ptr %0, ptr %3, align 8
  store ptr %1, ptr %4, align 8
  %6 = load ptr, ptr %3, align 8
  %7 = call noundef i64 @_ZN11ReadClosure7nextPtrEv(ptr noundef nonnull align 8 dereferenceable(16) %6)
  store i64 %7, ptr %5, align 8
  %8 = load i64, ptr %5, align 8
  %9 = trunc i64 %8 to i32
  %10 = load ptr, ptr %4, align 8
  store i32 %9, ptr %10, align 4
  ret void
}